target datalayout = "e-m:e-p270:32:32-p271:32:32-p272:64:64-i64:64-i128:128-f80:128-n8:16:32:64-S128"
target triple = "x86_64-unknown-linux-gnu"

%"class.arrow::Status" = type { ptr }
%"struct.arrow::ipc::internal::FileBlock" = type { i64, i32, i64 }

@.str.1 = private unnamed_addr constant [28 x i8] c"Unaligned block in IPC file\00", align 1

; Function Attrs: mustprogress nounwind uwtable
define linkonce_odr void @_ZN5arrow6StatusC2Ev(ptr noundef nonnull align 8 dereferenceable(8) %this) unnamed_addr #1 comdat align 2 {
entry:
  %this.addr = alloca ptr, align 8
  store ptr %this, ptr %this.addr, align 8
  %this1 = load ptr, ptr %this.addr, align 8
  %state_ = getelementptr inbounds %"class.arrow::Status", ptr %this1, i32 0, i32 0
  store ptr null, ptr %state_, align 8
  ret void
}

; Function Attrs: mustprogress nounwind uwtable
define linkonce_odr void @_ZN5arrow6Status2OKEv(ptr noalias sret(%"class.arrow::Status") align 8 %agg.result) #1 comdat align 2 {
entry:
  %result.ptr = alloca ptr, align 8
  store ptr %agg.result, ptr %result.ptr, align 8
  call void @_ZN5arrow6StatusC2Ev(ptr noundef nonnull align 8 dereferenceable(8) %agg.result) #16
  ret void
}

; Function Attrs: mustprogress uwtable
define linkonce_odr void @_ZN5arrow6Status7InvalidIJRA28_KcEEES0_DpOT_(ptr noalias sret(%"class.arrow::Status") align 8 %agg.result, ptr noundef nonnull align 1 dereferenceable(28) %args) #0 comdat align 2 {
entry:
  %result.ptr = alloca ptr, align 8
  %args.addr = alloca ptr, align 8
  store ptr %agg.result, ptr %result.ptr, align 8
  store ptr %args, ptr %args.addr, align 8
  %0 = load ptr, ptr %args.addr, align 8
  call void @_ZN5arrow6Status8FromArgsIJRA28_KcEEES0_NS_10StatusCodeEDpOT_(ptr sret(%"class.arrow::Status") align 8 %agg.result, i8 noundef signext 4, ptr noundef nonnull align 1 dereferenceable(28) %0)
  ret void
}

; Function Attrs: mustprogress nounwind uwtable
define linkonce_odr noundef zeroext i1 @_ZN5arrow8bit_util13IsMultipleOf8El(i64 noundef %n) #1 comdat {
entry:
  %n.addr = alloca i64, align 8
  store i64 %n, ptr %n.addr, align 8
  %0 = load i64, ptr %n.addr, align 8
  %and = and i64 %0, 7
  %cmp = icmp eq i64 %and, 0
  ret i1 %cmp
}

; Function Attrs: mustprogress uwtable
define void @_ZN5arrow3ipc12CheckAlignedERKNS0_8internal9FileBlockE(ptr noalias sret(%"class.arrow::Status") align 8 %agg.result, ptr noundef nonnull align 8 dereferenceable(24) %block) #0 {
entry:
  %result.ptr = alloca ptr, align 8
  %block.addr = alloca ptr, align 8
  store ptr %agg.result, ptr %result.ptr, align 8
  store ptr %block, ptr %block.addr, align 8
  %0 = load ptr, ptr %block.addr, align 8
  %offset = getelementptr inbounds %"struct.arrow::ipc::internal::FileBlock", ptr %0, i32 0, i32 0
  %1 = load i64, ptr %offset, align 8
  %call = call noundef zeroext i1 @_ZN5arrow8bit_util13IsMultipleOf8El(i64 noundef %1)
  br i1 %call, label %lor.lhs.false, label %if.then

lor.lhs.false:                                    ; preds = %entry
  %2 = load ptr, ptr %block.addr, align 8
  %metadata_length = getelementptr inbounds %"struct.arrow::ipc::internal::FileBlock", ptr %2, i32 0, i32 1
  %3 = load i32, ptr %metadata_length, align 8
  %conv = sext i32 %3 to i64
  %call1 = call noundef zeroext i1 @_ZN5arrow8bit_util13IsMultipleOf8El(i64 noundef %conv)
  br i1 %call1, label %lor.lhs.false2, label %if.then

lor.lhs.false2:                                   ; preds = %lor.lhs.false
  %4 = load ptr, ptr %block.addr, align 8
  %body_length = getelementptr inbounds %"struct.arrow::ipc::internal::FileBlock", ptr %4, i32 0, i32 2
  %5 = load i64, ptr %body_length, align 8
  %call3 = call noundef zeroext i1 @_ZN5arrow8bit_util13IsMultipleOf8El(i64 noundef %5)
  br i1 %call3, label %if.end, label %if.then

if.then:                                          ; preds = %lor.lhs.false2, %lor.lhs.false, %entry
  call void @_ZN5arrow6Status7InvalidIJRA28_KcEEES0_DpOT_(ptr sret(%"class.arrow::Status") align 8 %agg.result, ptr noundef nonnull align 1 dereferenceable(28) @.str.1)
  br label %return

if.end:                                           ; preds = %lor.lhs.false2
  call void @_ZN5arrow6Status2OKEv(ptr sret(%"class.arrow::Status") align 8 %agg.result)
  br label %return

return:                                           ; preds = %if.end, %if.then
  ret void
}