; Function Attrs: mustprogress uwtable
define void @_ZN5arrow3ipc12CheckAlignedERKNS0_8internal9FileBlockE(ptr noalias sret(%"class.arrow::Status") align 8 %agg.result, ptr nocapture noundef nonnull readonly align 8 dereferenceable(24) %block) local_unnamed_addr #0 {
entry:
  %0 = load i64, ptr %block, align 8
  %and.i = and i64 %0, 7
  %cmp.i = icmp eq i64 %and.i, 0
  br i1 %cmp.i, label %lor.lhs.false, label %if.then

lor.lhs.false:                                    ; preds = %entry
  %metadata_length = getelementptr inbounds i8, ptr %block, i64 8
  %1 = load i32, ptr %metadata_length, align 8
  %2 = and i32 %1, 7
  %cmp.i4 = icmp eq i32 %2, 0
  br i1 %cmp.i4, label %lor.lhs.false2, label %if.then

lor.lhs.false2:                                   ; preds = %lor.lhs.false
  %body_length = getelementptr inbounds i8, ptr %block, i64 16
  %3 = load i64, ptr %body_length, align 8
  %and.i5 = and i64 %3, 7
  %cmp.i6 = icmp eq i64 %and.i5, 0
  br i1 %cmp.i6, label %if.end, label %if.then

if.then:                                          ; preds = %lor.lhs.false2, %lor.lhs.false, %entry
  tail call void @_ZN5arrow6Status8FromArgsIJRA28_KcEEES0_NS_10StatusCodeEDpOT_(ptr sret(%"class.arrow::Status") align 8 %agg.result, i8 noundef signext 4, ptr noundef nonnull align 1 dereferenceable(28) @.str.1)
  br label %return

if.end:                                           ; preds = %lor.lhs.false2
  store ptr null, ptr %agg.result, align 8, !alias.scope !97
  br label %return

return:                                           ; preds = %if.end, %if.then
  ret void
}